; Function Attrs: mustprogress nounwind willreturn uwtable
define void @Cnf_CutFree(ptr noundef readonly captures(none) %0) local_unnamed_addr #2 {
  %2 = getelementptr inbounds nuw i8, ptr %0, i64 8
  %3 = load ptr, ptr %2, align 8, !tbaa !19
  %.not = icmp eq ptr %3, null
  br i1 %.not, label %8, label %4

4:                                                ; preds = %1
  %5 = getelementptr inbounds nuw i8, ptr %3, i64 8
  %6 = load ptr, ptr %5, align 8, !tbaa !20
  %.not.i = icmp eq ptr %6, null
  br i1 %.not.i, label %Vec_IntFree.exit, label %7

7:                                                ; preds = %4
  tail call void @free(ptr noundef nonnull %6) #12
  br label %Vec_IntFree.exit

Vec_IntFree.exit:                                 ; preds = %4, %7
  tail call void @free(ptr noundef nonnull %3) #12
  br label %8

8:                                                ; preds = %Vec_IntFree.exit, %1
  %9 = getelementptr inbounds nuw i8, ptr %0, i64 16
  %10 = load ptr, ptr %9, align 8, !tbaa !19
  %.not5 = icmp eq ptr %10, null
  br i1 %.not5, label %15, label %11

11:                                               ; preds = %8
  %12 = getelementptr inbounds nuw i8, ptr %10, i64 8
  %13 = load ptr, ptr %12, align 8, !tbaa !20
  %.not.i6 = icmp eq ptr %13, null
  br i1 %.not.i6, label %Vec_IntFree.exit7, label %14

14:                                               ; preds = %11
  tail call void @free(ptr noundef nonnull %13) #12
  br label %Vec_IntFree.exit7

Vec_IntFree.exit7:                                ; preds = %11, %14
  tail call void @free(ptr noundef nonnull %10) #12
  br label %15

15:                                               ; preds = %Vec_IntFree.exit7, %8
  ret void
}